; Function Attrs: mustprogress uwtable
define void @Java_org_coinor_Ipopt_FreeIpoptProblem(ptr noundef readnone captures(none) %0, ptr noundef readnone captures(none) %1, i64 noundef %2) local_unnamed_addr #3 {
  %4 = inttoptr i64 %2 to ptr
  %.not = icmp eq i64 %2, 0
  br i1 %.not, label %28, label %5

5:                                                ; preds = %3
  %6 = load ptr, ptr %4, align 8, !tbaa !115
  %.not5 = icmp eq ptr %6, null
  br i1 %.not5, label %28, label %7

7:                                                ; preds = %5
  %8 = getelementptr inbounds nuw i8, ptr %6, i64 136
  %9 = load ptr, ptr %8, align 8, !tbaa !26
  %.not.i.i.i = icmp eq ptr %9, null
  br i1 %.not.i.i.i, label %_ZN5Ipopt8SmartPtrINS_16IpoptApplicationEEaSEPS1_.exit.thread, label %10

10:                                               ; preds = %7
  %11 = getelementptr inbounds nuw i8, ptr %9, i64 8
  %12 = load i32, ptr %11, align 8, !tbaa !3
  %13 = add nsw i32 %12, -1
  store i32 %13, ptr %11, align 8, !tbaa !3
  %14 = icmp eq i32 %13, 0
  br i1 %14, label %_ZN5Ipopt8SmartPtrINS_16IpoptApplicationEEaSEPS1_.exit, label %_ZN5Ipopt8SmartPtrINS_16IpoptApplicationEEaSEPS1_.exit.thread

_ZN5Ipopt8SmartPtrINS_16IpoptApplicationEEaSEPS1_.exit.thread: ; preds = %7, %10
  store ptr null, ptr %8, align 8, !tbaa !26
  br label %18

_ZN5Ipopt8SmartPtrINS_16IpoptApplicationEEaSEPS1_.exit: ; preds = %10
  %15 = load ptr, ptr %9, align 8, !tbaa !8
  %16 = getelementptr inbounds nuw i8, ptr %15, i64 8
  %17 = load ptr, ptr %16, align 8
  tail call void %17(ptr noundef nonnull align 8 dereferenceable(90) %9) #19
  %.pre = load ptr, ptr %4, align 8, !tbaa !115
  store ptr null, ptr %8, align 8, !tbaa !26
  %.not.i.i.i4 = icmp eq ptr %.pre, null
  br i1 %.not.i.i.i4, label %_ZN5Ipopt8SmartPtrI6JipoptEaSEPS1_.exit, label %18

18:                                               ; preds = %_ZN5Ipopt8SmartPtrINS_16IpoptApplicationEEaSEPS1_.exit.thread, %_ZN5Ipopt8SmartPtrINS_16IpoptApplicationEEaSEPS1_.exit
  %19 = phi ptr [ %6, %_ZN5Ipopt8SmartPtrINS_16IpoptApplicationEEaSEPS1_.exit.thread ], [ %.pre, %_ZN5Ipopt8SmartPtrINS_16IpoptApplicationEEaSEPS1_.exit ]
  %20 = getelementptr inbounds nuw i8, ptr %19, i64 8
  %21 = load i32, ptr %20, align 8, !tbaa !3
  %22 = add nsw i32 %21, -1
  store i32 %22, ptr %20, align 8, !tbaa !3
  %23 = icmp eq i32 %22, 0
  br i1 %23, label %24, label %_ZN5Ipopt8SmartPtrI6JipoptEaSEPS1_.exit

24:                                               ; preds = %18
  %25 = load ptr, ptr %19, align 8, !tbaa !8
  %26 = getelementptr inbounds nuw i8, ptr %25, i64 8
  %27 = load ptr, ptr %26, align 8
  tail call void %27(ptr noundef nonnull align 8 dereferenceable(232) %19) #19
  br label %_ZN5Ipopt8SmartPtrI6JipoptEaSEPS1_.exit

_ZN5Ipopt8SmartPtrI6JipoptEaSEPS1_.exit:          ; preds = %_ZN5Ipopt8SmartPtrINS_16IpoptApplicationEEaSEPS1_.exit, %18, %24
  store ptr null, ptr %4, align 8, !tbaa !115
  br label %28

28:                                               ; preds = %_ZN5Ipopt8SmartPtrI6JipoptEaSEPS1_.exit, %5, %3
  ret void
}